target datalayout = "e-m:e-p270:32:32-p271:32:32-p272:64:64-i64:64-i128:128-f80:128-n8:16:32:64-S128"
target triple = "x86_64-pc-linux-gnu"

%struct._object = type { %union.anon, ptr }
%union.anon = type { i64 }
%struct._structmodulestate = type { ptr, ptr, ptr, ptr }
%struct.PyModuleObject = type { %struct._object, ptr, ptr, ptr, ptr, ptr }
%struct.PyStructObject = type { %struct._object, i64, i64, ptr, ptr, ptr }
%struct._PyBytesWriter = type { ptr, i64, i64, i32, i32, i32, [512 x i8] }

@.str.12 = private unnamed_addr constant [46 x i8] c"pack expected %zd items for packing (got %zd)\00", align 1

; Function Attrs: inlinehint nounwind uwtable
define internal ptr @_PyModule_GetState(ptr noundef %0) #2 {
  %2 = alloca ptr, align 8
  store ptr %0, ptr %2, align 8, !tbaa !3
  %3 = load ptr, ptr %2, align 8, !tbaa !3
  %4 = getelementptr inbounds nuw %struct.PyModuleObject, ptr %3, i32 0, i32 3
  %5 = load ptr, ptr %4, align 8, !tbaa !24
  ret ptr %5
}

; Function Attrs: inlinehint nounwind uwtable
define internal ptr @get_struct_state(ptr noundef %0) #2 {
  %2 = alloca ptr, align 8
  %3 = alloca ptr, align 8
  store ptr %0, ptr %2, align 8, !tbaa !3
  call void @llvm.lifetime.start.p0(i64 8, ptr %3) #8
  %4 = load ptr, ptr %2, align 8, !tbaa !3
  %5 = call ptr @_PyModule_GetState(ptr noundef %4)
  store ptr %5, ptr %3, align 8, !tbaa !8
  %6 = load ptr, ptr %3, align 8, !tbaa !8
  call void @llvm.lifetime.end.p0(i64 8, ptr %3) #8
  ret ptr %6
}

; Function Attrs: inlinehint nounwind uwtable
define internal ptr @_Py_TYPE(ptr noundef %0) #2 {
  %2 = alloca ptr, align 8
  store ptr %0, ptr %2, align 8, !tbaa !3
  %3 = load ptr, ptr %2, align 8, !tbaa !3
  %4 = getelementptr inbounds nuw %struct._object, ptr %3, i32 0, i32 1
  %5 = load ptr, ptr %4, align 8, !tbaa !41
  ret ptr %5
}

; Function Attrs: nounwind uwtable
define internal ptr @s_pack(ptr noundef %0, ptr noundef %1, i64 noundef %2) #0 {
  %4 = alloca ptr, align 8
  %5 = alloca ptr, align 8
  %6 = alloca ptr, align 8
  %7 = alloca i64, align 8
  %8 = alloca ptr, align 8
  %9 = alloca ptr, align 8
  %10 = alloca ptr, align 8
  %11 = alloca i32, align 4
  %12 = alloca %struct._PyBytesWriter, align 8
  store ptr %0, ptr %5, align 8, !tbaa !3
  store ptr %1, ptr %6, align 8, !tbaa !16
  store i64 %2, ptr %7, align 8, !tbaa !18
  call void @llvm.lifetime.start.p0(i64 8, ptr %8) #8
  call void @llvm.lifetime.start.p0(i64 8, ptr %9) #8
  call void @llvm.lifetime.start.p0(i64 8, ptr %10) #8
  %13 = load ptr, ptr %5, align 8, !tbaa !3
  %14 = call ptr @_Py_TYPE(ptr noundef %13)
  %15 = call ptr @PyType_GetModuleByDef(ptr noundef %14, ptr noundef @_structmodule)
  %16 = call ptr @get_struct_state(ptr noundef %15)
  store ptr %16, ptr %10, align 8, !tbaa !8
  %17 = load ptr, ptr %5, align 8, !tbaa !3
  store ptr %17, ptr %9, align 8, !tbaa !8
  %18 = load i64, ptr %7, align 8, !tbaa !18
  %19 = load ptr, ptr %9, align 8, !tbaa !8
  %20 = getelementptr inbounds nuw %struct.PyStructObject, ptr %19, i32 0, i32 2
  %21 = load i64, ptr %20, align 8, !tbaa !42
  %22 = icmp ne i64 %18, %21
  br i1 %22, label %23, label %32

23:                                               ; preds = %3
  %24 = load ptr, ptr %10, align 8, !tbaa !8
  %25 = getelementptr inbounds nuw %struct._structmodulestate, ptr %24, i32 0, i32 3
  %26 = load ptr, ptr %25, align 8, !tbaa !15
  %27 = load ptr, ptr %9, align 8, !tbaa !8
  %28 = getelementptr inbounds nuw %struct.PyStructObject, ptr %27, i32 0, i32 2
  %29 = load i64, ptr %28, align 8, !tbaa !42
  %30 = load i64, ptr %7, align 8, !tbaa !18
  %31 = call ptr (ptr, ptr, ...) @PyErr_Format(ptr noundef %26, ptr noundef @.str.12, i64 noundef %29, i64 noundef %30)
  store ptr null, ptr %4, align 8
  store i32 1, ptr %11, align 4
  br label %56

32:                                               ; preds = %3
  call void @llvm.lifetime.start.p0(i64 552, ptr %12) #8
  call void @_PyBytesWriter_Init(ptr noundef %12)
  %33 = load ptr, ptr %9, align 8, !tbaa !8
  %34 = getelementptr inbounds nuw %struct.PyStructObject, ptr %33, i32 0, i32 1
  %35 = load i64, ptr %34, align 8, !tbaa !29
  %36 = call ptr @_PyBytesWriter_Alloc(ptr noundef %12, i64 noundef %35)
  store ptr %36, ptr %8, align 8, !tbaa !43
  %37 = load ptr, ptr %8, align 8, !tbaa !43
  %38 = icmp eq ptr %37, null
  br i1 %38, label %39, label %40

39:                                               ; preds = %32
  call void @_PyBytesWriter_Dealloc(ptr noundef %12)
  store ptr null, ptr %4, align 8
  store i32 1, ptr %11, align 4
  br label %55

40:                                               ; preds = %32
  %41 = load ptr, ptr %9, align 8, !tbaa !8
  %42 = load ptr, ptr %6, align 8, !tbaa !16
  %43 = load ptr, ptr %8, align 8, !tbaa !43
  %44 = load ptr, ptr %10, align 8, !tbaa !8
  %45 = call i32 @s_pack_internal(ptr noundef %41, ptr noundef %42, i32 noundef 0, ptr noundef %43, ptr noundef %44)
  %46 = icmp ne i32 %45, 0
  br i1 %46, label %47, label %48

47:                                               ; preds = %40
  call void @_PyBytesWriter_Dealloc(ptr noundef %12)
  store ptr null, ptr %4, align 8
  store i32 1, ptr %11, align 4
  br label %55

48:                                               ; preds = %40
  %49 = load ptr, ptr %8, align 8, !tbaa !43
  %50 = load ptr, ptr %9, align 8, !tbaa !8
  %51 = getelementptr inbounds nuw %struct.PyStructObject, ptr %50, i32 0, i32 1
  %52 = load i64, ptr %51, align 8, !tbaa !29
  %53 = getelementptr i8, ptr %49, i64 %52
  %54 = call ptr @_PyBytesWriter_Finish(ptr noundef %12, ptr noundef %53)
  store ptr %54, ptr %4, align 8
  store i32 1, ptr %11, align 4
  br label %55

55:                                               ; preds = %48, %47, %39
  call void @llvm.lifetime.end.p0(i64 552, ptr %12) #8
  br label %56

56:                                               ; preds = %55, %23
  call void @llvm.lifetime.end.p0(i64 8, ptr %10) #8
  call void @llvm.lifetime.end.p0(i64 8, ptr %9) #8
  call void @llvm.lifetime.end.p0(i64 8, ptr %8) #8
  %57 = load ptr, ptr %4, align 8
  ret ptr %57
}