; Function Attrs: nounwind uwtable
define internal ptr @s_pack(ptr noundef readonly captures(none) %0, ptr noundef readonly captures(none) %1, i64 noundef %2) #0 {
  %4 = alloca %struct._PyBytesWriter, align 8
  %5 = getelementptr i8, ptr %0, i64 8
  %.val19 = load ptr, ptr %5, align 8, !tbaa !24
  %6 = tail call ptr @PyType_GetModuleByDef(ptr noundef %.val19, ptr noundef nonnull @_structmodule) #7
  %7 = getelementptr i8, ptr %6, i64 32
  %.val = load ptr, ptr %7, align 8, !tbaa !3
  %8 = getelementptr inbounds nuw i8, ptr %0, i64 24
  %9 = load i64, ptr %8, align 8, !tbaa !42
  %.not = icmp eq i64 %2, %9
  br i1 %.not, label %14, label %10

10:                                               ; preds = %3
  %11 = getelementptr inbounds nuw i8, ptr %.val, i64 24
  %12 = load ptr, ptr %11, align 8, !tbaa !16
  %13 = tail call ptr (ptr, ptr, ...) @PyErr_Format(ptr noundef %12, ptr noundef nonnull @.str.12, i64 noundef %9, i64 noundef %2) #7
  br label %28

14:                                               ; preds = %3
  call void @llvm.lifetime.start.p0(i64 552, ptr nonnull %4) #7
  call void @_PyBytesWriter_Init(ptr noundef nonnull %4) #7
  %15 = getelementptr inbounds nuw i8, ptr %0, i64 16
  %16 = load i64, ptr %15, align 8, !tbaa !20
  %17 = call ptr @_PyBytesWriter_Alloc(ptr noundef nonnull %4, i64 noundef %16) #7
  %18 = icmp eq ptr %17, null
  br i1 %18, label %19, label %20

19:                                               ; preds = %14
  call void @_PyBytesWriter_Dealloc(ptr noundef nonnull %4) #7
  br label %27

20:                                               ; preds = %14
  %21 = call fastcc i32 @s_pack_internal(ptr noundef nonnull %0, ptr noundef %1, i32 noundef 0, ptr noundef nonnull %17, ptr noundef %.val)
  %.not18 = icmp eq i32 %21, 0
  br i1 %.not18, label %23, label %22

22:                                               ; preds = %20
  call void @_PyBytesWriter_Dealloc(ptr noundef nonnull %4) #7
  br label %27

23:                                               ; preds = %20
  %24 = load i64, ptr %15, align 8, !tbaa !20
  %25 = getelementptr i8, ptr %17, i64 %24
  %26 = call ptr @_PyBytesWriter_Finish(ptr noundef nonnull %4, ptr noundef %25) #7
  br label %27

27:                                               ; preds = %23, %22, %19
  %.1 = phi ptr [ null, %19 ], [ null, %22 ], [ %26, %23 ]
  call void @llvm.lifetime.end.p0(i64 552, ptr nonnull %4) #7
  br label %28

28:                                               ; preds = %27, %10
  %.0 = phi ptr [ null, %10 ], [ %.1, %27 ]
  ret ptr %.0
}